target datalayout = "e-m:e-p270:32:32-p271:32:32-p272:64:64-i64:64-i128:128-f80:128-n8:16:32:64-S128"
target triple = "x86_64-pc-linux-gnu"

%struct.SMgrRelationData = type { %struct.RelFileLocatorBackend, i32, [4 x i32], i32, [4 x i32], [4 x ptr], i32, %struct.dlist_node }
%struct.RelFileLocatorBackend = type { %struct.RelFileLocator, i32 }
%struct.RelFileLocator = type { i32, i32, i32 }
%struct.dlist_node = type { ptr, ptr }
%struct._MdfdVec = type { i32, i32 }
%struct.FileTag = type { i16, i16, %struct.RelFileLocator, i64 }
%struct.instr_time = type { i64 }

@.str.2 = private unnamed_addr constant [5 x i8] c"md.c\00", align 1
@.str.17 = private unnamed_addr constant [30 x i8] c"could not fsync file \22%s\22: %m\00", align 1
@track_io_timing = external global i8, align 1
@.str.21 = private unnamed_addr constant [62 x i8] c"could not forward fsync request because request queue is full\00", align 1
@__func__.register_dirty_segment = private unnamed_addr constant [23 x i8] c"register_dirty_segment\00", align 1

; Function Attrs: nounwind uwtable
define internal void @register_dirty_segment(ptr noundef %0, i32 noundef %1, ptr noundef %2) #0 {
  %4 = alloca ptr, align 8
  %5 = alloca i32, align 4
  %6 = alloca ptr, align 8
  %7 = alloca %struct.FileTag, align 8
  %8 = alloca %struct.instr_time, align 8
  %9 = alloca %struct.instr_time, align 8
  store ptr %0, ptr %4, align 8
  store i32 %1, ptr %5, align 4
  store ptr %2, ptr %6, align 8
  call void @llvm.lifetime.start.p0(i64 24, ptr %7) #10
  call void @llvm.memset.p0.i64(ptr align 8 %7, i8 0, i64 24, i1 false)
  %10 = getelementptr inbounds nuw %struct.FileTag, ptr %7, i32 0, i32 0
  store i16 0, ptr %10, align 8
  %11 = getelementptr inbounds nuw %struct.FileTag, ptr %7, i32 0, i32 2
  %12 = load ptr, ptr %4, align 8
  %13 = getelementptr inbounds nuw %struct.SMgrRelationData, ptr %12, i32 0, i32 0
  %14 = getelementptr inbounds nuw %struct.RelFileLocatorBackend, ptr %13, i32 0, i32 0
  call void @llvm.memcpy.p0.p0.i64(ptr align 4 %11, ptr align 8 %14, i64 12, i1 false)
  %15 = load i32, ptr %5, align 4
  %16 = trunc i32 %15 to i16
  %17 = getelementptr inbounds nuw %struct.FileTag, ptr %7, i32 0, i32 1
  store i16 %16, ptr %17, align 2
  %18 = load ptr, ptr %6, align 8
  %19 = getelementptr inbounds nuw %struct._MdfdVec, ptr %18, i32 0, i32 1
  %20 = load i32, ptr %19, align 4
  %21 = zext i32 %20 to i64
  %22 = getelementptr inbounds nuw %struct.FileTag, ptr %7, i32 0, i32 3
  store i64 %21, ptr %22, align 8
  %23 = call zeroext i1 @RegisterSyncRequest(ptr noundef %7, i32 noundef 0, i1 noundef zeroext false)
  br i1 %23, label %68, label %24

24:                                               ; preds = %3
  call void @llvm.lifetime.start.p0(i64 8, ptr %8) #10
  br label %25

25:                                               ; preds = %24
  br i1 false, label %26, label %28

26:                                               ; preds = %25
  %27 = call zeroext i1 @errstart_cold(i32 noundef 14, ptr noundef null) #12
  br i1 %27, label %30, label %32

28:                                               ; preds = %25
  %29 = call zeroext i1 @errstart(i32 noundef 14, ptr noundef null)
  br i1 %29, label %30, label %32

30:                                               ; preds = %28, %26
  %31 = call i32 (ptr, ...) @errmsg_internal(ptr noundef @.str.21)
  call void @errfinish(ptr noundef @.str.2, i32 noundef 1382, ptr noundef @__func__.register_dirty_segment)
  br label %32

32:                                               ; preds = %30, %28, %26
  br label %33

33:                                               ; preds = %32
  br label %34

34:                                               ; preds = %33
  call void @llvm.lifetime.start.p0(i64 8, ptr %9) #10
  %35 = load i8, ptr @track_io_timing, align 1, !range !4, !noundef !5
  %36 = trunc i8 %35 to i1
  %37 = call i64 @pgstat_prepare_io_time(i1 noundef zeroext %36)
  %38 = getelementptr inbounds nuw %struct.instr_time, ptr %9, i32 0, i32 0
  store i64 %37, ptr %38, align 8
  call void @llvm.memcpy.p0.p0.i64(ptr align 8 %8, ptr align 8 %9, i64 8, i1 false)
  call void @llvm.lifetime.end.p0(i64 8, ptr %9) #10
  %39 = load ptr, ptr %6, align 8
  %40 = getelementptr inbounds nuw %struct._MdfdVec, ptr %39, i32 0, i32 0
  %41 = load i32, ptr %40, align 4
  %42 = call i32 @FileSync(i32 noundef %41, i32 noundef 167772178)
  %43 = icmp slt i32 %42, 0
  br i1 %43, label %44, label %65

44:                                               ; preds = %34
  br label %45

45:                                               ; preds = %44
  br i1 false, label %46, label %52

46:                                               ; preds = %45
  %47 = call i32 @data_sync_elevel(i32 noundef 21)
  %48 = icmp sge i32 %47, 21
  br i1 %48, label %49, label %52

49:                                               ; preds = %46
  %50 = call i32 @data_sync_elevel(i32 noundef 21)
  %51 = call zeroext i1 @errstart_cold(i32 noundef %50, ptr noundef null) #12
  br i1 %51, label %55, label %62

52:                                               ; preds = %46, %45
  %53 = call i32 @data_sync_elevel(i32 noundef 21)
  %54 = call zeroext i1 @errstart(i32 noundef %53, ptr noundef null)
  br i1 %54, label %55, label %62

55:                                               ; preds = %52, %49
  %56 = call i32 @errcode_for_file_access()
  %57 = load ptr, ptr %6, align 8
  %58 = getelementptr inbounds nuw %struct._MdfdVec, ptr %57, i32 0, i32 0
  %59 = load i32, ptr %58, align 4
  %60 = call ptr @FilePathName(i32 noundef %59)
  %61 = call i32 (ptr, ...) @errmsg(ptr noundef @.str.17, ptr noundef %60)
  call void @errfinish(ptr noundef @.str.2, i32 noundef 1390, ptr noundef @__func__.register_dirty_segment)
  br label %62

62:                                               ; preds = %55, %52, %49
  br label %63

63:                                               ; preds = %62
  br label %64

64:                                               ; preds = %63
  br label %65

65:                                               ; preds = %64, %34
  %66 = getelementptr inbounds nuw %struct.instr_time, ptr %8, i32 0, i32 0
  %67 = load i64, ptr %66, align 8
  call void @pgstat_count_io_op_time(i32 noundef 0, i32 noundef 3, i32 noundef 1, i64 %67, i32 noundef 1, i64 noundef 0)
  call void @llvm.lifetime.end.p0(i64 8, ptr %8) #10
  br label %68

68:                                               ; preds = %65, %3
  call void @llvm.lifetime.end.p0(i64 24, ptr %7) #10
  ret void
}