; Function Attrs: nounwind uwtable
define internal fastcc void @register_dirty_segment(ptr noundef readonly captures(none) %0, i32 noundef %1, ptr noundef readonly captures(none) %2) unnamed_addr #0 {
  %4 = alloca %struct.FileTag, align 8
  call void @llvm.lifetime.start.p0(i64 24, ptr nonnull %4) #15
  %5 = getelementptr inbounds nuw i8, ptr %4, i64 4
  store i64 0, ptr %4, align 8
  call void @llvm.memcpy.p0.p0.i64(ptr noundef nonnull align 4 dereferenceable(12) %5, ptr noundef nonnull align 8 dereferenceable(12) %0, i64 12, i1 false)
  %6 = trunc i32 %1 to i16
  %7 = getelementptr inbounds nuw i8, ptr %4, i64 2
  store i16 %6, ptr %7, align 2
  %8 = getelementptr inbounds nuw i8, ptr %2, i64 4
  %9 = load i32, ptr %8, align 4
  %10 = zext i32 %9 to i64
  %11 = getelementptr inbounds nuw i8, ptr %4, i64 16
  store i64 %10, ptr %11, align 8
  %12 = call zeroext i1 @RegisterSyncRequest(ptr noundef nonnull %4, i32 noundef 0, i1 noundef zeroext false) #15
  br i1 %12, label %33, label %13

13:                                               ; preds = %3
  %14 = call zeroext i1 @errstart(i32 noundef 14, ptr noundef null) #15
  br i1 %14, label %15, label %17

15:                                               ; preds = %13
  %16 = call i32 (ptr, ...) @errmsg_internal(ptr noundef nonnull @.str.21) #15
  call void @errfinish(ptr noundef nonnull @.str.2, i32 noundef 1382, ptr noundef nonnull @__func__.register_dirty_segment) #15
  br label %17

17:                                               ; preds = %15, %13
  %18 = load i8, ptr @track_io_timing, align 1, !range !4, !noundef !5
  %19 = trunc nuw i8 %18 to i1
  %20 = call i64 @pgstat_prepare_io_time(i1 noundef zeroext %19) #15
  %21 = load i32, ptr %2, align 4
  %22 = call i32 @FileSync(i32 noundef %21, i32 noundef 167772178) #15
  %23 = icmp slt i32 %22, 0
  br i1 %23, label %24, label %32

24:                                               ; preds = %17
  %25 = call i32 @data_sync_elevel(i32 noundef 21) #15
  %26 = call zeroext i1 @errstart(i32 noundef %25, ptr noundef null) #15
  br i1 %26, label %27, label %32

27:                                               ; preds = %24
  %28 = call i32 @errcode_for_file_access() #15
  %29 = load i32, ptr %2, align 4
  %30 = call ptr @FilePathName(i32 noundef %29) #15
  %31 = call i32 (ptr, ...) @errmsg(ptr noundef nonnull @.str.17, ptr noundef %30) #15
  call void @errfinish(ptr noundef nonnull @.str.2, i32 noundef 1390, ptr noundef nonnull @__func__.register_dirty_segment) #15
  br label %32

32:                                               ; preds = %24, %27, %17
  call void @pgstat_count_io_op_time(i32 noundef 0, i32 noundef 3, i32 noundef 1, i64 %20, i32 noundef 1, i64 noundef 0) #15
  br label %33

33:                                               ; preds = %32, %3
  call void @llvm.lifetime.end.p0(i64 24, ptr nonnull %4) #15
  ret void
}